target datalayout = "e-m:e-p270:32:32-p271:32:32-p272:64:64-i64:64-i128:128-f80:128-n8:16:32:64-S128"
target triple = "x86_64-pc-linux-gnu"

%struct.nano_session_state = type { i32, i32 }

; Function Attrs: null_pointer_is_valid sspstrong uwtable
define internal i32 @get_nano_tcp_server_message_len(ptr noundef %0, ptr noundef %1, i32 noundef %2, ptr noundef %3) #0 {
  %5 = alloca i32, align 4
  %6 = alloca ptr, align 8
  %7 = alloca ptr, align 8
  %8 = alloca i32, align 4
  %9 = alloca ptr, align 8
  %10 = alloca i32, align 4
  %11 = alloca ptr, align 8
  %12 = alloca i32, align 4
  store ptr %0, ptr %6, align 8
  store ptr %1, ptr %7, align 8
  store i32 %2, ptr %8, align 4
  store ptr %3, ptr %9, align 8
  call void @llvm.lifetime.start.p0(i64 4, ptr %10) #8
  call void @llvm.lifetime.start.p0(i64 8, ptr %11) #8
  %13 = load ptr, ptr %9, align 8
  store ptr %13, ptr %11, align 8
  %14 = load ptr, ptr %11, align 8
  %15 = getelementptr inbounds nuw %struct.nano_session_state, ptr %14, i32 0, i32 0
  %16 = load i32, ptr %15, align 4
  %17 = icmp eq i32 %16, 6
  br i1 %17, label %23, label %18

18:                                               ; preds = %4
  %19 = load ptr, ptr %11, align 8
  %20 = getelementptr inbounds nuw %struct.nano_session_state, ptr %19, i32 0, i32 0
  %21 = load i32, ptr %20, align 4
  %22 = icmp eq i32 %21, 9
  br i1 %22, label %23, label %40

23:                                               ; preds = %18, %4
  %24 = load ptr, ptr %7, align 8
  %25 = load i32, ptr %8, align 4
  %26 = call zeroext i8 @tvb_get_uint8(ptr noundef %24, i32 noundef %25)
  %27 = zext i8 %26 to i32
  store i32 %27, ptr %10, align 4
  %28 = load i32, ptr %10, align 4
  switch i32 %28, label %35 [
    i32 1, label %29
    i32 2, label %30
    i32 3, label %31
    i32 4, label %32
    i32 5, label %33
    i32 6, label %34
  ]

29:                                               ; preds = %23
  store i32 1, ptr %5, align 4
  store i32 1, ptr %12, align 4
  br label %51

30:                                               ; preds = %23
  store i32 153, ptr %5, align 4
  store i32 1, ptr %12, align 4
  br label %51

31:                                               ; preds = %23
  store i32 137, ptr %5, align 4
  store i32 1, ptr %12, align 4
  br label %51

32:                                               ; preds = %23
  store i32 169, ptr %5, align 4
  store i32 1, ptr %12, align 4
  br label %51

33:                                               ; preds = %23
  store i32 137, ptr %5, align 4
  store i32 1, ptr %12, align 4
  br label %51

34:                                               ; preds = %23
  store i32 217, ptr %5, align 4
  store i32 1, ptr %12, align 4
  br label %51

35:                                               ; preds = %23
  %36 = load ptr, ptr %7, align 8
  %37 = call i32 @tvb_captured_length(ptr noundef %36)
  %38 = load i32, ptr %8, align 4
  %39 = sub i32 %37, %38
  store i32 %39, ptr %5, align 4
  store i32 1, ptr %12, align 4
  br label %51

40:                                               ; preds = %18
  %41 = load ptr, ptr %11, align 8
  %42 = getelementptr inbounds nuw %struct.nano_session_state, ptr %41, i32 0, i32 0
  %43 = load i32, ptr %42, align 4
  %44 = icmp eq i32 %43, 8
  br i1 %44, label %45, label %46

45:                                               ; preds = %40
  store i32 64, ptr %5, align 4
  store i32 1, ptr %12, align 4
  br label %51

46:                                               ; preds = %40
  %47 = load ptr, ptr %7, align 8
  %48 = call i32 @tvb_captured_length(ptr noundef %47)
  %49 = load i32, ptr %8, align 4
  %50 = sub i32 %48, %49
  store i32 %50, ptr %5, align 4
  store i32 1, ptr %12, align 4
  br label %51

51:                                               ; preds = %46, %45, %35, %34, %33, %32, %31, %30, %29
  call void @llvm.lifetime.end.p0(i64 8, ptr %11) #8
  call void @llvm.lifetime.end.p0(i64 4, ptr %10) #8
  %52 = load i32, ptr %5, align 4
  ret i32 %52
}