; Function Attrs: null_pointer_is_valid sspstrong uwtable
define internal i32 @get_nano_tcp_server_message_len(ptr readnone captures(none) %0, ptr noundef %1, i32 noundef %2, ptr noundef readonly captures(none) %3) #0 {
  %5 = load i32, ptr %3, align 4
  switch i32 %5, label %12 [
    i32 6, label %6
    i32 9, label %6
    i32 8, label %16
  ]

6:                                                ; preds = %4, %4
  %7 = tail call zeroext i8 @tvb_get_uint8(ptr noundef %1, i32 noundef %2)
  %switch.tableidx = add i8 %7, -1
  %8 = icmp ult i8 %switch.tableidx, 6
  br i1 %8, label %switch.lookup, label %9

9:                                                ; preds = %6
  %10 = tail call i32 @tvb_captured_length(ptr noundef %1)
  %11 = sub i32 %10, %2
  br label %16

12:                                               ; preds = %4
  %13 = tail call i32 @tvb_captured_length(ptr noundef %1)
  %14 = sub i32 %13, %2
  br label %16

switch.lookup:                                    ; preds = %6
  %15 = zext nneg i8 %switch.tableidx to i64
  %switch.gep = getelementptr inbounds nuw [6 x i32], ptr @switch.table.get_nano_tcp_server_message_len, i64 0, i64 %15
  %switch.load = load i32, ptr %switch.gep, align 4
  br label %16

16:                                               ; preds = %switch.lookup, %4, %12, %9
  %.0 = phi i32 [ %11, %9 ], [ %14, %12 ], [ 64, %4 ], [ %switch.load, %switch.lookup ]
  ret i32 %.0
}